; Function Attrs: mustprogress uwtable
define noundef zeroext i1 @_ZN10OpenSubdiv6v3_6_03Far22TopologyRefinerFactoryINS1_18TopologyDescriptorEE23resizeComponentTopologyERNS1_15TopologyRefinerERKS3_(ptr noundef nonnull align 8 captures(none) dereferenceable(120) %0, ptr noundef nonnull readonly align 8 captures(none) dereferenceable(104) %1) local_unnamed_addr #2 align 2 {
  %3 = load i32, ptr %1, align 8
  %4 = getelementptr inbounds nuw i8, ptr %0, i64 48
  %5 = load ptr, ptr %4, align 8
  %6 = load ptr, ptr %5, align 8
  tail call void @_ZN10OpenSubdiv6v3_6_03Vtr8internal5Level14resizeVerticesEi(ptr noundef nonnull align 8 dereferenceable(480) %6, i32 noundef %3)
  %7 = getelementptr inbounds nuw i8, ptr %1, i64 4
  %8 = load i32, ptr %7, align 4
  %9 = load ptr, ptr %4, align 8
  %10 = load ptr, ptr %9, align 8
  tail call void @_ZN10OpenSubdiv6v3_6_03Vtr8internal5Level11resizeFacesEi(ptr noundef nonnull align 8 dereferenceable(480) %10, i32 noundef %8)
  %11 = load i32, ptr %7, align 4
  %12 = icmp sgt i32 %11, 0
  br i1 %12, label %.lr.ph, label %._crit_edge

.lr.ph:                                           ; preds = %2
  %13 = getelementptr inbounds nuw i8, ptr %1, i64 8
  %14 = getelementptr inbounds nuw i8, ptr %0, i64 8
  br label %15

15:                                               ; preds = %.lr.ph, %_ZN10OpenSubdiv6v3_6_03Far22TopologyRefinerFactoryINS1_18TopologyDescriptorEE22setNumBaseFaceVerticesERNS1_15TopologyRefinerEii.exit
  %indvars.iv = phi i64 [ 0, %.lr.ph ], [ %indvars.iv.next, %_ZN10OpenSubdiv6v3_6_03Far22TopologyRefinerFactoryINS1_18TopologyDescriptorEE22setNumBaseFaceVerticesERNS1_15TopologyRefinerEii.exit ]
  %16 = load ptr, ptr %13, align 8
  %17 = getelementptr inbounds nuw i32, ptr %16, i64 %indvars.iv
  %18 = load i32, ptr %17, align 4
  %19 = load ptr, ptr %4, align 8
  %20 = load ptr, ptr %19, align 8
  %21 = getelementptr inbounds nuw i8, ptr %20, i64 24
  %22 = load ptr, ptr %21, align 8
  %.idx = shl nuw nsw i64 %indvars.iv, 3
  %23 = getelementptr inbounds nuw i8, ptr %22, i64 %.idx
  store i32 %18, ptr %23, align 4
  %24 = icmp eq i64 %indvars.iv, 0
  br i1 %24, label %_ZN10OpenSubdiv6v3_6_03Vtr8internal5Level18resizeFaceVerticesEii.exit.i, label %25

25:                                               ; preds = %15
  %26 = getelementptr inbounds i8, ptr %23, i64 -8
  %27 = load i32, ptr %26, align 4
  %28 = getelementptr inbounds i8, ptr %23, i64 -4
  %29 = load i32, ptr %28, align 4
  %30 = add nsw i32 %29, %27
  br label %_ZN10OpenSubdiv6v3_6_03Vtr8internal5Level18resizeFaceVerticesEii.exit.i

_ZN10OpenSubdiv6v3_6_03Vtr8internal5Level18resizeFaceVerticesEii.exit.i: ; preds = %25, %15
  %31 = phi i32 [ %30, %25 ], [ 0, %15 ]
  %32 = getelementptr inbounds nuw i8, ptr %23, i64 4
  store i32 %31, ptr %32, align 4
  %33 = getelementptr inbounds nuw i8, ptr %20, i64 20
  %34 = load i32, ptr %33, align 4
  %.sroa.speculated.i.i = tail call i32 @llvm.smax.i32(i32 %34, i32 %18)
  store i32 %.sroa.speculated.i.i, ptr %33, align 4
  %35 = load i16, ptr %14, align 8
  %36 = and i16 %35, 4
  %.not.i = icmp eq i16 %36, 0
  br i1 %.not.i, label %37, label %_ZN10OpenSubdiv6v3_6_03Far22TopologyRefinerFactoryINS1_18TopologyDescriptorEE22setNumBaseFaceVerticesERNS1_15TopologyRefinerEii.exit

37:                                               ; preds = %_ZN10OpenSubdiv6v3_6_03Vtr8internal5Level18resizeFaceVerticesEii.exit.i
  %38 = lshr i16 %35, 3
  %39 = and i16 %38, 7
  %40 = zext nneg i16 %39 to i32
  %.not6.i = icmp eq i32 %18, %40
  %41 = select i1 %.not6.i, i16 0, i16 4
  br label %_ZN10OpenSubdiv6v3_6_03Far22TopologyRefinerFactoryINS1_18TopologyDescriptorEE22setNumBaseFaceVerticesERNS1_15TopologyRefinerEii.exit

_ZN10OpenSubdiv6v3_6_03Far22TopologyRefinerFactoryINS1_18TopologyDescriptorEE22setNumBaseFaceVerticesERNS1_15TopologyRefinerEii.exit: ; preds = %_ZN10OpenSubdiv6v3_6_03Vtr8internal5Level18resizeFaceVerticesEii.exit.i, %37
  %42 = phi i16 [ 4, %_ZN10OpenSubdiv6v3_6_03Vtr8internal5Level18resizeFaceVerticesEii.exit.i ], [ %41, %37 ]
  %43 = and i16 %35, -5
  %44 = or disjoint i16 %42, %43
  store i16 %44, ptr %14, align 8
  %indvars.iv.next = add nuw nsw i64 %indvars.iv, 1
  %45 = load i32, ptr %7, align 4
  %46 = sext i32 %45 to i64
  %47 = icmp slt i64 %indvars.iv.next, %46
  br i1 %47, label %15, label %._crit_edge, !llvm.loop !5

._crit_edge:                                      ; preds = %_ZN10OpenSubdiv6v3_6_03Far22TopologyRefinerFactoryINS1_18TopologyDescriptorEE22setNumBaseFaceVerticesERNS1_15TopologyRefinerEii.exit, %2
  ret i1 true
}